target datalayout = "e-m:e-p270:32:32-p271:32:32-p272:64:64-i64:64-i128:128-f80:128-n8:16:32:64-S128"
target triple = "x86_64-unknown-linux-gnu"

%struct.AudiodevWavOptions = type { ptr, ptr, ptr }

@.str.9 = private unnamed_addr constant [3 x i8] c"in\00", align 1
@.str.10 = private unnamed_addr constant [4 x i8] c"out\00", align 1
@.str.28 = private unnamed_addr constant [5 x i8] c"path\00", align 1

; Function Attrs: nounwind sspstrong uwtable
define dso_local zeroext i1 @visit_type_AudiodevWavOptions_members(ptr noundef %v, ptr noundef %obj, ptr noundef %errp) #0 {
entry:
  %retval = alloca i1, align 1
  %v.addr = alloca ptr, align 8
  %obj.addr = alloca ptr, align 8
  %errp.addr = alloca ptr, align 8
  %has_in = alloca i8, align 1
  %has_out = alloca i8, align 1
  %has_path = alloca i8, align 1
  store ptr %v, ptr %v.addr, align 8
  store ptr %obj, ptr %obj.addr, align 8
  store ptr %errp, ptr %errp.addr, align 8
  %0 = load ptr, ptr %obj.addr, align 8
  %in = getelementptr inbounds %struct.AudiodevWavOptions, ptr %0, i32 0, i32 0
  %1 = load ptr, ptr %in, align 8
  %tobool = icmp ne ptr %1, null
  %lnot = xor i1 %tobool, true
  %lnot1 = xor i1 %lnot, true
  %frombool = zext i1 %lnot1 to i8
  store i8 %frombool, ptr %has_in, align 1
  %2 = load ptr, ptr %obj.addr, align 8
  %out = getelementptr inbounds %struct.AudiodevWavOptions, ptr %2, i32 0, i32 1
  %3 = load ptr, ptr %out, align 8
  %tobool2 = icmp ne ptr %3, null
  %lnot3 = xor i1 %tobool2, true
  %lnot4 = xor i1 %lnot3, true
  %frombool5 = zext i1 %lnot4 to i8
  store i8 %frombool5, ptr %has_out, align 1
  %4 = load ptr, ptr %obj.addr, align 8
  %path = getelementptr inbounds %struct.AudiodevWavOptions, ptr %4, i32 0, i32 2
  %5 = load ptr, ptr %path, align 8
  %tobool6 = icmp ne ptr %5, null
  %lnot7 = xor i1 %tobool6, true
  %lnot8 = xor i1 %lnot7, true
  %frombool9 = zext i1 %lnot8 to i8
  store i8 %frombool9, ptr %has_path, align 1
  %6 = load ptr, ptr %v.addr, align 8
  %call = call zeroext i1 @visit_optional(ptr noundef %6, ptr noundef @.str.9, ptr noundef %has_in)
  br i1 %call, label %if.then, label %if.end13

if.then:                                          ; preds = %entry
  %7 = load ptr, ptr %v.addr, align 8
  %8 = load ptr, ptr %obj.addr, align 8
  %in10 = getelementptr inbounds %struct.AudiodevWavOptions, ptr %8, i32 0, i32 0
  %9 = load ptr, ptr %errp.addr, align 8
  %call11 = call zeroext i1 @visit_type_AudiodevPerDirectionOptions(ptr noundef %7, ptr noundef @.str.9, ptr noundef %in10, ptr noundef %9)
  br i1 %call11, label %if.end, label %if.then12

if.then12:                                        ; preds = %if.then
  store i1 false, ptr %retval, align 1
  br label %return

if.end:                                           ; preds = %if.then
  br label %if.end13

if.end13:                                         ; preds = %if.end, %entry
  %10 = load ptr, ptr %v.addr, align 8
  %call14 = call zeroext i1 @visit_optional(ptr noundef %10, ptr noundef @.str.10, ptr noundef %has_out)
  br i1 %call14, label %if.then15, label %if.end20

if.then15:                                        ; preds = %if.end13
  %11 = load ptr, ptr %v.addr, align 8
  %12 = load ptr, ptr %obj.addr, align 8
  %out16 = getelementptr inbounds %struct.AudiodevWavOptions, ptr %12, i32 0, i32 1
  %13 = load ptr, ptr %errp.addr, align 8
  %call17 = call zeroext i1 @visit_type_AudiodevPerDirectionOptions(ptr noundef %11, ptr noundef @.str.10, ptr noundef %out16, ptr noundef %13)
  br i1 %call17, label %if.end19, label %if.then18

if.then18:                                        ; preds = %if.then15
  store i1 false, ptr %retval, align 1
  br label %return

if.end19:                                         ; preds = %if.then15
  br label %if.end20

if.end20:                                         ; preds = %if.end19, %if.end13
  %14 = load ptr, ptr %v.addr, align 8
  %call21 = call zeroext i1 @visit_optional(ptr noundef %14, ptr noundef @.str.28, ptr noundef %has_path)
  br i1 %call21, label %if.then22, label %if.end27

if.then22:                                        ; preds = %if.end20
  %15 = load ptr, ptr %v.addr, align 8
  %16 = load ptr, ptr %obj.addr, align 8
  %path23 = getelementptr inbounds %struct.AudiodevWavOptions, ptr %16, i32 0, i32 2
  %17 = load ptr, ptr %errp.addr, align 8
  %call24 = call zeroext i1 @visit_type_str(ptr noundef %15, ptr noundef @.str.28, ptr noundef %path23, ptr noundef %17)
  br i1 %call24, label %if.end26, label %if.then25

if.then25:                                        ; preds = %if.then22
  store i1 false, ptr %retval, align 1
  br label %return

if.end26:                                         ; preds = %if.then22
  br label %if.end27

if.end27:                                         ; preds = %if.end26, %if.end20
  store i1 true, ptr %retval, align 1
  br label %return

return:                                           ; preds = %if.end27, %if.then25, %if.then18, %if.then12
  %18 = load i1, ptr %retval, align 1
  ret i1 %18
}